target datalayout = "e-m:e-p270:32:32-p271:32:32-p272:64:64-i64:64-i128:128-f80:128-n8:16:32:64-S128"
target triple = "x86_64-pc-linux-gnu"

%struct.x509_store_ctx_st = type { ptr, i32, ptr, ptr, ptr, ptr, ptr, ptr, ptr, ptr, ptr, ptr, ptr, ptr, ptr, ptr, ptr, ptr, ptr, i32, i32, ptr, ptr, i32, i32, i32, ptr, ptr, ptr, i32, i32, ptr, %struct.crypto_ex_data_st }
%struct.crypto_ex_data_st = type { ptr }
%struct.X509_VERIFY_PARAM_st = type { ptr, i64, i64, i64, i32, i32, i32, ptr, ptr }

; Function Attrs: nounwind uwtable
define internal i32 @check_issued(ptr noundef %0, ptr noundef %1, ptr noundef %2) #0 {
  %4 = alloca i32, align 4
  %5 = alloca ptr, align 8
  %6 = alloca ptr, align 8
  %7 = alloca ptr, align 8
  %8 = alloca i32, align 4
  %9 = alloca i32, align 4
  store ptr %0, ptr %5, align 8, !tbaa !6
  store ptr %1, ptr %6, align 8, !tbaa !11
  store ptr %2, ptr %7, align 8, !tbaa !11
  call void @llvm.lifetime.start.p0(i64 4, ptr %8) #8
  %10 = load ptr, ptr %7, align 8, !tbaa !11
  %11 = load ptr, ptr %6, align 8, !tbaa !11
  %12 = call i32 @X509_check_issued(ptr noundef %10, ptr noundef %11)
  store i32 %12, ptr %8, align 4, !tbaa !13
  %13 = load i32, ptr %8, align 4, !tbaa !13
  %14 = icmp eq i32 %13, 0
  br i1 %14, label %15, label %16

15:                                               ; preds = %3
  store i32 1, ptr %4, align 4
  store i32 1, ptr %9, align 4
  br label %40

16:                                               ; preds = %3
  %17 = load ptr, ptr %5, align 8, !tbaa !6
  %18 = getelementptr inbounds nuw %struct.x509_store_ctx_st, ptr %17, i32 0, i32 5
  %19 = load ptr, ptr %18, align 8, !tbaa !15
  %20 = getelementptr inbounds nuw %struct.X509_VERIFY_PARAM_st, ptr %19, i32 0, i32 3
  %21 = load i64, ptr %20, align 8, !tbaa !39
  %22 = and i64 %21, 1
  %23 = icmp ne i64 %22, 0
  br i1 %23, label %25, label %24

24:                                               ; preds = %16
  store i32 0, ptr %4, align 4
  store i32 1, ptr %9, align 4
  br label %40

25:                                               ; preds = %16
  %26 = load i32, ptr %8, align 4, !tbaa !13
  %27 = load ptr, ptr %5, align 8, !tbaa !6
  %28 = getelementptr inbounds nuw %struct.x509_store_ctx_st, ptr %27, i32 0, i32 25
  store i32 %26, ptr %28, align 8, !tbaa !41
  %29 = load ptr, ptr %6, align 8, !tbaa !11
  %30 = load ptr, ptr %5, align 8, !tbaa !6
  %31 = getelementptr inbounds nuw %struct.x509_store_ctx_st, ptr %30, i32 0, i32 26
  store ptr %29, ptr %31, align 8, !tbaa !42
  %32 = load ptr, ptr %7, align 8, !tbaa !11
  %33 = load ptr, ptr %5, align 8, !tbaa !6
  %34 = getelementptr inbounds nuw %struct.x509_store_ctx_st, ptr %33, i32 0, i32 27
  store ptr %32, ptr %34, align 8, !tbaa !88
  %35 = load ptr, ptr %5, align 8, !tbaa !6
  %36 = getelementptr inbounds nuw %struct.x509_store_ctx_st, ptr %35, i32 0, i32 8
  %37 = load ptr, ptr %36, align 8, !tbaa !29
  %38 = load ptr, ptr %5, align 8, !tbaa !6
  %39 = call i32 %37(i32 noundef 0, ptr noundef %38)
  store i32 %39, ptr %4, align 4
  store i32 1, ptr %9, align 4
  br label %40

40:                                               ; preds = %25, %24, %15
  call void @llvm.lifetime.end.p0(i64 4, ptr %8) #8
  %41 = load i32, ptr %4, align 4
  ret i32 %41
}