; Function Attrs: nounwind uwtable
define internal i32 @check_issued(ptr noundef %0, ptr noundef %1, ptr noundef %2) #0 {
  %4 = tail call i32 @X509_check_issued(ptr noundef %2, ptr noundef %1) #14
  %5 = icmp eq i32 %4, 0
  br i1 %5, label %19, label %6

6:                                                ; preds = %3
  %7 = getelementptr inbounds nuw i8, ptr %0, i64 40
  %8 = load ptr, ptr %7, align 8, !tbaa !6
  %9 = getelementptr inbounds nuw i8, ptr %8, i64 24
  %10 = load i64, ptr %9, align 8, !tbaa !44
  %11 = and i64 %10, 1
  %.not = icmp eq i64 %11, 0
  br i1 %.not, label %19, label %12

12:                                               ; preds = %6
  %13 = getelementptr inbounds nuw i8, ptr %0, i64 184
  store i32 %4, ptr %13, align 8, !tbaa !50
  %14 = getelementptr inbounds nuw i8, ptr %0, i64 192
  store ptr %1, ptr %14, align 8, !tbaa !51
  %15 = getelementptr inbounds nuw i8, ptr %0, i64 200
  store ptr %2, ptr %15, align 8, !tbaa !94
  %16 = getelementptr inbounds nuw i8, ptr %0, i64 64
  %17 = load ptr, ptr %16, align 8, !tbaa !24
  %18 = tail call i32 %17(i32 noundef 0, ptr noundef nonnull %0) #14
  br label %19

19:                                               ; preds = %6, %3, %12
  %.0 = phi i32 [ %18, %12 ], [ 1, %3 ], [ 0, %6 ]
  ret i32 %.0
}